; Function Attrs: nounwind uwtable
define ptr @l_Lean_Meta_instToStringRecursorUnivLevelPos(ptr noundef %0) local_unnamed_addr #0 {
  %2 = ptrtoint ptr %0 to i64
  %3 = and i64 %2, 1
  %.not.i8 = icmp eq i64 %3, 0
  br i1 %.not.i8, label %7, label %4

4:                                                ; preds = %1
  %5 = lshr i64 %2, 1
  %6 = trunc i64 %5 to i32
  br label %lean_obj_tag.exit

7:                                                ; preds = %1
  %8 = getelementptr i8, ptr %0, i64 4
  %.val.i = load i32, ptr %8, align 4
  %9 = lshr i32 %.val.i, 24
  br label %lean_obj_tag.exit

lean_obj_tag.exit:                                ; preds = %4, %7
  %.0.i = phi i32 [ %6, %4 ], [ %9, %7 ]
  %10 = icmp eq i32 %.0.i, 0
  br i1 %10, label %11, label %13

11:                                               ; preds = %lean_obj_tag.exit
  %12 = load ptr, ptr @l_Lean_Meta_instToStringRecursorUnivLevelPos___closed__1, align 8, !tbaa !4
  br label %32

13:                                               ; preds = %lean_obj_tag.exit
  %14 = getelementptr inbounds nuw i8, ptr %0, i64 8
  %15 = load ptr, ptr %14, align 8, !tbaa !4
  %16 = ptrtoint ptr %15 to i64
  %17 = and i64 %16, 1
  %.not = icmp eq i64 %17, 0
  br i1 %.not, label %18, label %lean_inc.exit

18:                                               ; preds = %13
  %.val.i9 = load i32, ptr %15, align 4, !tbaa !8
  %19 = icmp sgt i32 %.val.i9, 0
  br i1 %19, label %20, label %22, !prof !11

20:                                               ; preds = %18
  %21 = add nuw i32 %.val.i9, 1
  store i32 %21, ptr %15, align 4, !tbaa !8
  br label %lean_inc.exit

22:                                               ; preds = %18
  %.not.i10 = icmp eq i32 %.val.i9, 0
  br i1 %.not.i10, label %lean_inc.exit, label %23

23:                                               ; preds = %22
  tail call void @lean_inc_ref_cold(ptr noundef nonnull %15) #6
  br label %lean_inc.exit

lean_inc.exit:                                    ; preds = %23, %22, %20, %13
  br i1 %.not.i8, label %24, label %lean_dec.exit

24:                                               ; preds = %lean_inc.exit
  %25 = load i32, ptr %0, align 4, !tbaa !8
  %26 = icmp sgt i32 %25, 1
  br i1 %26, label %27, label %29, !prof !11

27:                                               ; preds = %24
  %28 = add nsw i32 %25, -1
  store i32 %28, ptr %0, align 4, !tbaa !8
  br label %lean_dec.exit

29:                                               ; preds = %24
  %.not.i = icmp eq i32 %25, 0
  br i1 %.not.i, label %lean_dec.exit, label %30

30:                                               ; preds = %29
  tail call void @lean_dec_ref_cold(ptr noundef nonnull %0) #6
  br label %lean_dec.exit

lean_dec.exit:                                    ; preds = %30, %29, %27, %lean_inc.exit
  %31 = tail call ptr @l___private_Init_Data_Repr_0__Nat_reprFast(ptr noundef %15) #6
  br label %32

32:                                               ; preds = %lean_dec.exit, %11
  %.0 = phi ptr [ %12, %11 ], [ %31, %lean_dec.exit ]
  ret ptr %.0
}